target datalayout = "e-m:e-p270:32:32-p271:32:32-p272:64:64-i64:64-i128:128-f80:128-n8:16:32:64-S128"
target triple = "x86_64-pc-linux-gnu"

%struct.CLI_LZMA = type { %struct.CLzmaDec, [5 x i8], i32, i32, i32, i32, i64, ptr, ptr, i64, i64 }
%struct.CLzmaDec = type { %struct._CLzmaProps, ptr, ptr, ptr, i32, i32, i64, i64, i32, i32, i32, [4 x i32], i32, i32, i32, i32, i32, [20 x i8] }
%struct._CLzmaProps = type { i32, i32, i32, i32 }

@.str.68 = private unnamed_addr constant [40 x i8] c"cli_egg_lzma_decompress: Invalid args!\0A\00", align 1
@.str.69 = private unnamed_addr constant [73 x i8] c"cli_egg_lzma_decompress: cannot allocate memory for decompressed output\0A\00", align 1
@.str.70 = private unnamed_addr constant [45 x i8] c"cli_egg_lzma_decompress: inflateInit failed\0A\00", align 1
@.str.71 = private unnamed_addr constant [52 x i8] c"cli_egg_lzma_decompress: failed to decompress data\0A\00", align 1
@.str.72 = private unnamed_addr constant [75 x i8] c"cli_egg_lzma_decompress: cannot reallocate memory for decompressed output\0A\00", align 1
@.str.73 = private unnamed_addr constant [55 x i8] c"cli_egg_lzma_decompress: Z_OK on stream decompression\0A\00", align 1
@.str.74 = private unnamed_addr constant [92 x i8] c"cli_egg_lzma_decompress: decompressed %lu bytes from %lu total bytes (%lu bytes remaining)\0A\00", align 1
@.str.75 = private unnamed_addr constant [70 x i8] c"cli_egg_lzma_decompress: after decompressing %lu bytes, got error %d\0A\00", align 1
@.str.76 = private unnamed_addr constant [54 x i8] c"cli_egg_lzma_decompress: no bytes were decompressed.\0A\00", align 1

; Function Attrs: nounwind uwtable
define i32 @cli_egg_lzma_decompress(ptr noundef %0, i64 noundef %1, ptr noundef %2, ptr noundef %3) #0 {
  %5 = alloca ptr, align 8
  %6 = alloca i64, align 8
  %7 = alloca ptr, align 8
  %8 = alloca ptr, align 8
  %9 = alloca i32, align 4
  %10 = alloca ptr, align 8
  %11 = alloca i32, align 4
  %12 = alloca i32, align 4
  %13 = alloca %struct.CLI_LZMA, align 8
  %14 = alloca i32, align 4
  %15 = alloca i32, align 4
  %16 = alloca ptr, align 8
  store ptr %0, ptr %5, align 8
  store i64 %1, ptr %6, align 8
  store ptr %2, ptr %7, align 8
  store ptr %3, ptr %8, align 8
  store i32 27, ptr %9, align 4
  store ptr null, ptr %10, align 8
  store i32 0, ptr %11, align 4
  store i32 0, ptr %12, align 4
  store i32 0, ptr %14, align 4
  %17 = load ptr, ptr %5, align 8
  %18 = icmp eq ptr null, %17
  br i1 %18, label %28, label %19

19:                                               ; preds = %4
  %20 = load i64, ptr %6, align 8
  %21 = icmp eq i64 %20, 0
  br i1 %21, label %28, label %22

22:                                               ; preds = %19
  %23 = load ptr, ptr %7, align 8
  %24 = icmp eq ptr null, %23
  br i1 %24, label %28, label %25

25:                                               ; preds = %22
  %26 = load ptr, ptr %8, align 8
  %27 = icmp eq ptr null, %26
  br i1 %27, label %28, label %29

28:                                               ; preds = %25, %22, %19, %4
  call void (ptr, ...) @cli_errmsg(ptr noundef @.str.68)
  store i32 3, ptr %9, align 4
  br label %128

29:                                               ; preds = %25
  %30 = load ptr, ptr %7, align 8
  store ptr null, ptr %30, align 8
  %31 = load ptr, ptr %8, align 8
  store i64 0, ptr %31, align 8
  %32 = call noalias ptr @calloc(i64 noundef 8192, i64 noundef 1) #6
  store ptr %32, ptr %10, align 8
  %33 = icmp ne ptr %32, null
  br i1 %33, label %35, label %34

34:                                               ; preds = %29
  call void (ptr, ...) @cli_errmsg(ptr noundef @.str.69)
  store i32 20, ptr %9, align 4
  br label %128

35:                                               ; preds = %29
  store i32 8192, ptr %12, align 4
  call void @llvm.memset.p0.i64(ptr align 8 %13, i8 0, i64 200, i1 false)
  %36 = load ptr, ptr %5, align 8
  %37 = getelementptr inbounds %struct.CLI_LZMA, ptr %13, i32 0, i32 7
  store ptr %36, ptr %37, align 8
  %38 = load i64, ptr %6, align 8
  %39 = getelementptr inbounds %struct.CLI_LZMA, ptr %13, i32 0, i32 9
  store i64 %38, ptr %39, align 8
  %40 = load ptr, ptr %10, align 8
  %41 = getelementptr inbounds %struct.CLI_LZMA, ptr %13, i32 0, i32 8
  store ptr %40, ptr %41, align 8
  %42 = getelementptr inbounds %struct.CLI_LZMA, ptr %13, i32 0, i32 10
  store i64 8192, ptr %42, align 8
  %43 = call i32 @cli_LzmaInit(ptr noundef %13, i64 noundef 0)
  store i32 %43, ptr %15, align 4
  %44 = load i32, ptr %15, align 4
  %45 = icmp ne i32 %44, 0
  br i1 %45, label %46, label %47

46:                                               ; preds = %35
  call void (ptr, ...) @cli_warnmsg(ptr noundef @.str.70)
  store i32 20, ptr %9, align 4
  br label %128

47:                                               ; preds = %35
  store i32 1, ptr %14, align 4
  %48 = call i32 @cli_LzmaDecode(ptr noundef %13)
  store i32 %48, ptr %15, align 4
  %49 = load i32, ptr %15, align 4
  %50 = icmp ne i32 %49, 0
  br i1 %50, label %51, label %56

51:                                               ; preds = %47
  %52 = getelementptr inbounds %struct.CLI_LZMA, ptr %13, i32 0, i32 10
  %53 = load i64, ptr %52, align 8
  %54 = icmp eq i64 %53, 8192
  br i1 %54, label %55, label %56

55:                                               ; preds = %51
  call void (ptr, ...) @cli_errmsg(ptr noundef @.str.71)
  store i32 27, ptr %9, align 4
  br label %128

56:                                               ; preds = %51, %47
  br label %57

57:                                               ; preds = %95, %56
  %58 = load i32, ptr %15, align 4
  %59 = icmp eq i32 %58, 0
  br i1 %59, label %60, label %64

60:                                               ; preds = %57
  %61 = getelementptr inbounds %struct.CLI_LZMA, ptr %13, i32 0, i32 9
  %62 = load i64, ptr %61, align 8
  %63 = icmp ne i64 %62, 0
  br label %64

64:                                               ; preds = %60, %57
  %65 = phi i1 [ false, %57 ], [ %63, %60 ]
  br i1 %65, label %66, label %97

66:                                               ; preds = %64
  %67 = getelementptr inbounds %struct.CLI_LZMA, ptr %13, i32 0, i32 10
  %68 = load i64, ptr %67, align 8
  %69 = icmp eq i64 %68, 0
  br i1 %69, label %70, label %95

70:                                               ; preds = %66
  br label %71

71:                                               ; preds = %70
  %72 = load ptr, ptr %10, align 8
  %73 = load i32, ptr %12, align 4
  %74 = add i32 %73, 8192
  %75 = zext i32 %74 to i64
  %76 = call ptr @cli_safer_realloc(ptr noundef %72, i64 noundef %75)
  store ptr %76, ptr %16, align 8
  %77 = load ptr, ptr %16, align 8
  %78 = icmp eq ptr null, %77
  br i1 %78, label %79, label %82

79:                                               ; preds = %71
  br label %80

80:                                               ; preds = %79
  call void (ptr, ...) @cli_errmsg(ptr noundef @.str.72)
  store i32 20, ptr %9, align 4
  br label %81

81:                                               ; preds = %80
  br label %128

82:                                               ; preds = %71
  %83 = load ptr, ptr %16, align 8
  store ptr %83, ptr %10, align 8
  br label %84

84:                                               ; preds = %82
  %85 = load ptr, ptr %10, align 8
  %86 = load i32, ptr %12, align 4
  %87 = zext i32 %86 to i64
  %88 = getelementptr inbounds i8, ptr %85, i64 %87
  %89 = getelementptr inbounds %struct.CLI_LZMA, ptr %13, i32 0, i32 8
  store ptr %88, ptr %89, align 8
  %90 = getelementptr inbounds %struct.CLI_LZMA, ptr %13, i32 0, i32 10
  store i64 8192, ptr %90, align 8
  %91 = load i32, ptr %11, align 4
  %92 = add i32 %91, 8192
  store i32 %92, ptr %11, align 4
  %93 = load i32, ptr %12, align 4
  %94 = add i32 %93, 8192
  store i32 %94, ptr %12, align 4
  br label %95

95:                                               ; preds = %84, %66
  %96 = call i32 @cli_LzmaDecode(ptr noundef %13)
  store i32 %96, ptr %15, align 4
  br label %57

97:                                               ; preds = %64
  %98 = getelementptr inbounds %struct.CLI_LZMA, ptr %13, i32 0, i32 10
  %99 = load i64, ptr %98, align 8
  %100 = sub i64 8192, %99
  %101 = load i32, ptr %11, align 4
  %102 = zext i32 %101 to i64
  %103 = add i64 %102, %100
  %104 = trunc i64 %103 to i32
  store i32 %104, ptr %11, align 4
  %105 = load i32, ptr %15, align 4
  switch i32 %105, label %114 [
    i32 0, label %106
    i32 2, label %107
    i32 1, label %113
  ]

106:                                              ; preds = %97
  call void (ptr, ...) @cli_dbgmsg(ptr noundef @.str.73)
  br label %107

107:                                              ; preds = %106, %97
  %108 = load i32, ptr %11, align 4
  %109 = zext i32 %108 to i64
  %110 = load i64, ptr %6, align 8
  %111 = getelementptr inbounds %struct.CLI_LZMA, ptr %13, i32 0, i32 9
  %112 = load i64, ptr %111, align 8
  call void (ptr, ...) @cli_dbgmsg(ptr noundef @.str.74, i64 noundef %109, i64 noundef %110, i64 noundef %112)
  br label %122

113:                                              ; preds = %97
  br label %114

114:                                              ; preds = %113, %97
  %115 = load i32, ptr %11, align 4
  %116 = zext i32 %115 to i64
  %117 = load i32, ptr %15, align 4
  call void (ptr, ...) @cli_dbgmsg(ptr noundef @.str.75, i64 noundef %116, i32 noundef %117)
  %118 = load i32, ptr %11, align 4
  %119 = icmp eq i32 %118, 0
  br i1 %119, label %120, label %121

120:                                              ; preds = %114
  call void (ptr, ...) @cli_dbgmsg(ptr noundef @.str.76)
  store i32 27, ptr %9, align 4
  br label %121

121:                                              ; preds = %120, %114
  br label %122

122:                                              ; preds = %121, %107
  %123 = load ptr, ptr %10, align 8
  %124 = load ptr, ptr %7, align 8
  store ptr %123, ptr %124, align 8
  store ptr null, ptr %10, align 8
  %125 = load i32, ptr %11, align 4
  %126 = zext i32 %125 to i64
  %127 = load ptr, ptr %8, align 8
  store i64 %126, ptr %127, align 8
  store i32 0, ptr %9, align 4
  br label %128

128:                                              ; preds = %122, %81, %55, %46, %34, %28
  %129 = load i32, ptr %14, align 4
  %130 = icmp ne i32 %129, 0
  br i1 %130, label %131, label %132

131:                                              ; preds = %128
  call void @cli_LzmaShutdown(ptr noundef %13)
  br label %132

132:                                              ; preds = %131, %128
  %133 = load ptr, ptr %10, align 8
  %134 = icmp ne ptr null, %133
  br i1 %134, label %135, label %137

135:                                              ; preds = %132
  %136 = load ptr, ptr %10, align 8
  call void @free(ptr noundef %136) #7
  br label %137

137:                                              ; preds = %135, %132
  %138 = load i32, ptr %9, align 4
  ret i32 %138
}