; Function Attrs: nounwind uwtable
define noundef i32 @cli_egg_lzma_decompress(ptr noundef %0, i64 noundef %1, ptr noundef writeonly %2, ptr noundef writeonly %3) local_unnamed_addr #1 {
  %5 = alloca %struct.CLI_LZMA, align 8
  %6 = icmp eq ptr %0, null
  %7 = icmp eq i64 %1, 0
  %or.cond = or i1 %6, %7
  %8 = icmp eq ptr %2, null
  %or.cond3 = or i1 %or.cond, %8
  %9 = icmp eq ptr %3, null
  %or.cond5 = or i1 %or.cond3, %9
  br i1 %or.cond5, label %10, label %11

10:                                               ; preds = %4
  tail call void (ptr, ...) @cli_errmsg(ptr noundef nonnull @.str.68) #11
  br label %.thread.thread

11:                                               ; preds = %4
  store ptr null, ptr %2, align 8
  store i64 0, ptr %3, align 8
  %12 = tail call noalias dereferenceable_or_null(8192) ptr @calloc(i64 noundef 8192, i64 noundef 1) #12
  %.not = icmp eq ptr %12, null
  br i1 %.not, label %13, label %14

13:                                               ; preds = %11
  tail call void (ptr, ...) @cli_errmsg(ptr noundef nonnull @.str.69) #11
  br label %.thread.thread

14:                                               ; preds = %11
  call void @llvm.memset.p0.i64(ptr noundef nonnull align 8 dereferenceable(200) %5, i8 0, i64 168, i1 false)
  %15 = getelementptr inbounds i8, ptr %5, i64 168
  store ptr %0, ptr %15, align 8
  %16 = getelementptr inbounds i8, ptr %5, i64 184
  store i64 %1, ptr %16, align 8
  %17 = getelementptr inbounds i8, ptr %5, i64 176
  store ptr %12, ptr %17, align 8
  %18 = getelementptr inbounds i8, ptr %5, i64 192
  store i64 8192, ptr %18, align 8
  %19 = call i32 @cli_LzmaInit(ptr noundef nonnull %5, i64 noundef 0) #11
  %.not56 = icmp eq i32 %19, 0
  br i1 %.not56, label %20, label %.thread.thread68

.thread.thread68:                                 ; preds = %14
  call void (ptr, ...) @cli_warnmsg(ptr noundef nonnull @.str.70) #11
  br label %59

20:                                               ; preds = %14
  %21 = call i32 @cli_LzmaDecode(ptr noundef nonnull %5) #11
  %22 = icmp ne i32 %21, 0
  %23 = load i64, ptr %18, align 8
  %24 = icmp eq i64 %23, 8192
  %or.cond8 = select i1 %22, i1 %24, i1 false
  br i1 %or.cond8, label %.thread.thread78, label %.preheader

.preheader:                                       ; preds = %20
  %25 = icmp eq i32 %21, 0
  %26 = load i64, ptr %16, align 8
  %27 = icmp ne i64 %26, 0
  %28 = select i1 %25, i1 %27, i1 false
  br i1 %28, label %.lr.ph, label %._crit_edge

.thread.thread78:                                 ; preds = %20
  call void (ptr, ...) @cli_errmsg(ptr noundef nonnull @.str.71) #11
  call void @cli_LzmaShutdown(ptr noundef nonnull %5) #11
  br label %59

.lr.ph:                                           ; preds = %.preheader, %40
  %.04487 = phi i32 [ %.1, %40 ], [ 8192, %.preheader ]
  %.04586 = phi i32 [ %.146, %40 ], [ 0, %.preheader ]
  %.04785 = phi ptr [ %.148, %40 ], [ %12, %.preheader ]
  %29 = load i64, ptr %18, align 8
  %30 = icmp eq i64 %29, 0
  br i1 %30, label %31, label %40

31:                                               ; preds = %.lr.ph
  %32 = add i32 %.04487, 8192
  %33 = zext i32 %32 to i64
  %34 = call ptr @cli_safer_realloc(ptr noundef %.04785, i64 noundef %33) #11
  %35 = icmp eq ptr %34, null
  br i1 %35, label %.thread, label %36

36:                                               ; preds = %31
  %37 = zext i32 %.04487 to i64
  %38 = getelementptr inbounds i8, ptr %34, i64 %37
  store ptr %38, ptr %17, align 8
  store i64 8192, ptr %18, align 8
  %39 = add i32 %.04586, 8192
  br label %40

40:                                               ; preds = %36, %.lr.ph
  %.148 = phi ptr [ %34, %36 ], [ %.04785, %.lr.ph ]
  %.146 = phi i32 [ %39, %36 ], [ %.04586, %.lr.ph ]
  %.1 = phi i32 [ %32, %36 ], [ %.04487, %.lr.ph ]
  %41 = call i32 @cli_LzmaDecode(ptr noundef nonnull %5) #11
  %42 = icmp eq i32 %41, 0
  %43 = load i64, ptr %16, align 8
  %44 = icmp ne i64 %43, 0
  %45 = select i1 %42, i1 %44, i1 false
  br i1 %45, label %.lr.ph, label %._crit_edge.loopexit

._crit_edge.loopexit:                             ; preds = %40
  %.pre = load i64, ptr %18, align 8
  br label %._crit_edge

._crit_edge:                                      ; preds = %._crit_edge.loopexit, %.preheader
  %46 = phi i64 [ %26, %.preheader ], [ %43, %._crit_edge.loopexit ]
  %47 = phi i64 [ %23, %.preheader ], [ %.pre, %._crit_edge.loopexit ]
  %.047.lcssa = phi ptr [ %12, %.preheader ], [ %.148, %._crit_edge.loopexit ]
  %.045.lcssa = phi i32 [ 0, %.preheader ], [ %.146, %._crit_edge.loopexit ]
  %.042.lcssa = phi i32 [ %21, %.preheader ], [ %41, %._crit_edge.loopexit ]
  %48 = trunc i64 %47 to i32
  %49 = sub i32 %.045.lcssa, %48
  %50 = add i32 %49, 8192
  switch i32 %.042.lcssa, label %55 [
    i32 0, label %51
    i32 2, label %52
  ]

51:                                               ; preds = %._crit_edge
  call void (ptr, ...) @cli_dbgmsg(ptr noundef nonnull @.str.73) #11
  %.pre91 = load i64, ptr %16, align 8
  br label %52

52:                                               ; preds = %51, %._crit_edge
  %53 = phi i64 [ %.pre91, %51 ], [ %46, %._crit_edge ]
  %54 = zext i32 %50 to i64
  call void (ptr, ...) @cli_dbgmsg(ptr noundef nonnull @.str.74, i64 noundef %54, i64 noundef %1, i64 noundef %53) #11
  br label %.thread.thread74

55:                                               ; preds = %._crit_edge
  %56 = zext i32 %50 to i64
  call void (ptr, ...) @cli_dbgmsg(ptr noundef nonnull @.str.75, i64 noundef %56, i32 noundef %.042.lcssa) #11
  %57 = icmp eq i32 %50, 0
  br i1 %57, label %58, label %.thread.thread74

58:                                               ; preds = %55
  call void (ptr, ...) @cli_dbgmsg(ptr noundef nonnull @.str.76) #11
  br label %.thread.thread74

.thread.thread74:                                 ; preds = %52, %58, %55
  %.pre-phi = phi i64 [ %54, %52 ], [ 0, %58 ], [ %56, %55 ]
  store ptr %.047.lcssa, ptr %2, align 8
  store i64 %.pre-phi, ptr %3, align 8
  call void @cli_LzmaShutdown(ptr noundef nonnull %5) #11
  br label %.thread.thread

.thread:                                          ; preds = %31
  call void (ptr, ...) @cli_errmsg(ptr noundef nonnull @.str.72) #11
  call void @cli_LzmaShutdown(ptr noundef nonnull %5) #11
  %.not58 = icmp eq ptr %.04785, null
  br i1 %.not58, label %.thread.thread, label %59

59:                                               ; preds = %.thread.thread78, %.thread.thread68, %.thread
  %.26273 = phi ptr [ %12, %.thread.thread68 ], [ %.04785, %.thread ], [ %12, %.thread.thread78 ]
  %.06372 = phi i32 [ 20, %.thread.thread68 ], [ 20, %.thread ], [ 27, %.thread.thread78 ]
  call void @free(ptr noundef nonnull %.26273) #11
  br label %.thread.thread

.thread.thread:                                   ; preds = %10, %13, %.thread.thread74, %59, %.thread
  %.06367 = phi i32 [ %.06372, %59 ], [ 20, %.thread ], [ 0, %.thread.thread74 ], [ 3, %10 ], [ 20, %13 ]
  ret i32 %.06367
}